target datalayout = "e-m:e-p270:32:32-p271:32:32-p272:64:64-i64:64-i128:128-f80:128-n8:16:32:64-S128"
target triple = "x86_64-pc-linux-gnu"

%struct._lv_global_t = type { i8, i8, %struct.lv_ll_t, ptr, ptr, %struct.lv_ll_t, i8, i32, i32, ptr, %struct.lv_ll_t, ptr, %struct.lv_ll_t, ptr, ptr, i32, ptr, i8, i32, i32, ptr, i32, %struct.lv_timer_state_t, %struct.lv_anim_state_t, %struct.lv_tick_state_t, %struct._lv_draw_buf_handlers_t, %struct._lv_draw_buf_handlers_t, %struct._lv_draw_buf_handlers_t, %struct.lv_ll_t, ptr, ptr, %struct.lv_draw_global_info_t, [4 x %struct.lv_draw_sw_mask_radius_circle_dsc_t], ptr, ptr, ptr, %struct.lv_tlsf_state_t, %struct.lv_ll_t, ptr, ptr, %struct.lv_style_t, i64, ptr, i32, ptr }
%struct.lv_timer_state_t = type { %struct.lv_ll_t, i8, i8, i8, i8, i32, i8, i32, i32, i32, i32, ptr, ptr }
%struct.lv_anim_state_t = type { i8, i8, ptr, %struct.lv_ll_t }
%struct.lv_tick_state_t = type { i32, i8, ptr, ptr }
%struct._lv_draw_buf_handlers_t = type { ptr, ptr, ptr, ptr, ptr, ptr }
%struct.lv_draw_global_info_t = type { ptr, i32, i32, i32, i32, i8 }
%struct.lv_draw_sw_mask_radius_circle_dsc_t = type { ptr, ptr, ptr, ptr, i32, i32, i32 }
%struct.lv_tlsf_state_t = type { ptr, i64, i64, %struct.lv_ll_t }
%struct.lv_ll_t = type { i32, ptr, ptr }
%struct.lv_style_t = type { ptr, i32, i8 }
%struct._lv_cache_class_t = type { ptr, ptr, ptr, ptr, ptr, ptr, ptr, ptr, ptr, ptr, ptr }
%struct._lv_cache_ops_t = type { ptr, ptr, ptr }

@lv_global = external global %struct._lv_global_t, align 8
@lv_cache_class_lru_rb_count = external constant %struct._lv_cache_class_t, align 8
@.str = private unnamed_addr constant [13 x i8] c"IMAGE_HEADER\00", align 1

; Function Attrs: nounwind uwtable
define i32 @lv_image_header_cache_init(i32 noundef %0) #0 {
  %2 = alloca i32, align 4
  %3 = alloca i32, align 4
  %4 = alloca %struct._lv_cache_ops_t, align 8
  store i32 %0, ptr %3, align 4, !tbaa !3
  %5 = load ptr, ptr getelementptr inbounds nuw (%struct._lv_global_t, ptr @lv_global, i32 0, i32 30), align 8, !tbaa !7
  %6 = icmp ne ptr %5, null
  br i1 %6, label %7, label %8

7:                                                ; preds = %1
  store i32 1, ptr %2, align 4
  br label %19

8:                                                ; preds = %1
  %9 = load i32, ptr %3, align 4, !tbaa !3
  %10 = zext i32 %9 to i64
  %11 = getelementptr inbounds nuw %struct._lv_cache_ops_t, ptr %4, i32 0, i32 0
  store ptr @image_header_cache_compare_cb, ptr %11, align 8, !tbaa !31
  %12 = getelementptr inbounds nuw %struct._lv_cache_ops_t, ptr %4, i32 0, i32 1
  store ptr null, ptr %12, align 8, !tbaa !33
  %13 = getelementptr inbounds nuw %struct._lv_cache_ops_t, ptr %4, i32 0, i32 2
  store ptr @image_header_cache_free_cb, ptr %13, align 8, !tbaa !34
  %14 = call ptr @lv_cache_create(ptr noundef @lv_cache_class_lru_rb_count, i64 noundef 32, i64 noundef %10, ptr noundef byval(%struct._lv_cache_ops_t) align 8 %4)
  store ptr %14, ptr getelementptr inbounds nuw (%struct._lv_global_t, ptr @lv_global, i32 0, i32 30), align 8, !tbaa !7
  %15 = load ptr, ptr getelementptr inbounds nuw (%struct._lv_global_t, ptr @lv_global, i32 0, i32 30), align 8, !tbaa !7
  call void @lv_cache_set_name(ptr noundef %15, ptr noundef @.str)
  %16 = load ptr, ptr getelementptr inbounds nuw (%struct._lv_global_t, ptr @lv_global, i32 0, i32 30), align 8, !tbaa !7
  %17 = icmp ne ptr %16, null
  %18 = select i1 %17, i32 1, i32 0
  store i32 %18, ptr %2, align 4
  br label %19

19:                                               ; preds = %8, %7
  %20 = load i32, ptr %2, align 4
  ret i32 %20
}